target datalayout = "e-m:e-p270:32:32-p271:32:32-p272:64:64-i64:64-i128:128-f80:128-n8:16:32:64-S128"
target triple = "x86_64-pc-linux-gnu"

@.str.87 = private unnamed_addr constant [2 x i8] c"p\00", align 1

; Function Attrs: nounwind uwtable
define internal ptr @getargs_p(ptr noundef %0, ptr noundef %1) #0 {
  %3 = alloca ptr, align 8
  %4 = alloca ptr, align 8
  %5 = alloca ptr, align 8
  %6 = alloca i32, align 4
  %7 = alloca i32, align 4
  store ptr %0, ptr %4, align 8, !tbaa !3
  store ptr %1, ptr %5, align 8, !tbaa !3
  call void @llvm.lifetime.start.p0(i64 4, ptr %6) #9
  %8 = load ptr, ptr %5, align 8, !tbaa !3
  %9 = call i32 (ptr, ptr, ...) @PyArg_ParseTuple(ptr noundef %8, ptr noundef @.str.87, ptr noundef %6)
  %10 = icmp ne i32 %9, 0
  br i1 %10, label %12, label %11

11:                                               ; preds = %2
  store ptr null, ptr %3, align 8
  store i32 1, ptr %7, align 4
  br label %16

12:                                               ; preds = %2
  %13 = load i32, ptr %6, align 4, !tbaa !9
  %14 = sext i32 %13 to i64
  %15 = call ptr @PyLong_FromLong(i64 noundef %14)
  store ptr %15, ptr %3, align 8
  store i32 1, ptr %7, align 4
  br label %16

16:                                               ; preds = %12, %11
  call void @llvm.lifetime.end.p0(i64 4, ptr %6) #9
  %17 = load ptr, ptr %3, align 8
  ret ptr %17
}